Certificate:
    Data:
        Version: 3 (0x2)
        Serial Number: 1 (0x1)
        Signature Algorithm: sha1WithRSAEncryption
        Issuer: DC=org, DC=simple, O=Simple Inc, OU=Simple Signing CA, CN=Simple Signing CA
        Validity
            Not Before: Nov 12 01:56:20 2022 GMT
            Not After : Nov 11 01:56:20 2024 GMT
        Subject: DC=org, DC=simple, O=Simple Inc, OU=Simple Signing CA, CN=Simple Signing CA
        Subject Public Key Info:
            Public Key Algorithm: rsaEncryption
                Public-Key: (2048 bit)
                Modulus:
                    00:b4:7c:86:5c:be:2e:20:b6:c7:20:16:c2:db:1d:
                    30:87:f3:d2:8b:65:8d:bd:d9:95:b6:7e:76:51:9f:
                    5c:b2:2e:93:1c:78:f2:74:b7:ea:17:f0:93:8d:2f:
                    2c:b5:e8:e8:83:a0:d5:17:15:d4:a9:01:08:d5:67:
                    31:35:d8:58:69:cc:7c:42:21:42:5c:d8:fb:ee:10:
                    af:d6:e2:60:e3:d3:0f:63:2a:d3:66:e4:f7:be:20:
                    d8:6c:5a:1b:f8:39:a2:71:87:63:02:a1:17:1c:e5:
                    ce:81:8b:9e:2c:af:2d:99:20:a5:8a:06:55:02:cd:
                    0f:61:83:8a:65:46:40:3f:8e:ec:32:ff:e6:1e:78:
                    e1:46:45:f6:1a:14:ab:b1:a4:04:ca:2e:a1:b5:b2:
                    85:b2:dd:c6:8d:51:c1:7f:96:31:73:6e:be:24:0e:
                    63:a1:db:18:b8:0b:f3:69:c2:a3:1a:a1:73:c6:d4:
                    51:94:ef:7d:91:eb:3d:89:5c:af:de:1f:d2:aa:44:
                    b8:33:9e:ba:a8:75:e6:46:99:a2:53:4e:da:4f:7f:
                    97:2d:f8:5b:c3:3f:77:68:be:41:f8:41:e3:78:21:
                    c6:b0:e4:b8:cb:96:58:5c:8a:cb:78:c8:86:2b:92:
                    99:17:ed:e9:5d:3b:45:71:f4:74:a1:a4:06:17:dd:
                    e6:1b
                Exponent: 65537 (0x10001)
        X509v3 extensions:
            X509v3 Key Usage: critical
                Digital Signature, Key Encipherment
            X509v3 Basic Constraints: 
                CA:FALSE
            X509v3 Extended Key Usage: 
                TLS Web Server Authentication, TLS Web Client Authentication
            X509v3 Subject Key Identifier: 
                0C:9D:E9:2F:F9:00:B5:3F:D5:9F:3A:A7:7D:05:FD:1A:C0:D6:08:A2
            X509v3 Authority Key Identifier: 
                76:0B:57:B5:5C:E3:64:97:F2:40:61:2D:2F:65:C7:C4:5C:15:C4:7A
            X509v3 Subject Alternative Name: 
                DNS:www.simple.org
    Signature Algorithm: sha1WithRSAEncryption
    Signature Value:
        28:48:b6:c6:3b:8b:91:c0:9d:0d:d6:f6:7f:0d:68:28:d1:47:
        50:92:08:8e:2a:39:90:2e:79:28:05:d0:28:e9:d0:51:63:43:
        e6:4b:17:d6:87:eb:33:99:b8:33:a6:be:19:3b:3f:2c:80:54:
        8a:dc:e5:0d:27:ba:36:60:d0:ff:e8:e6:98:23:03:f0:6f:4d:
        01:1d:07:9b:b4:52:25:dc:33:4b:df:8e:0d:1f:ce:94:d6:68:
        4c:54:8e:9c:10:c9:4c:8f:3d:49:6f:aa:4e:de:64:fe:34:70:
        c1:44:83:2b:d0:d7:62:93:11:6b:2f:5c:f1:bb:2d:77:0b:6f:
        22:d4:b8:1f:c5:18:53:35:e6:67:37:52:f6:90:e9:d8:ca:93:
        6e:ad:bb:e1:04:a8:7a:cb:19:07:b7:4a:7a:7f:2e:35:82:dd:
        be:7d:b0:aa:25:dd:a1:32:c1:00:f9:cd:8a:7c:02:0b:83:4c:
        e0:ee:b0:7a:2e:a0:98:5f:74:c5:f9:f9:55:c2:bd:95:ea:6e:
        f6:96:24:57:3a:47:de:07:c5:9a:42:b7:ce:d6:98:37:62:05:
        74:73:d7:1b:a7:97:c2:72:bf:bf:7d:c3:da:4f:4f:de:2d:42:
        e8:e6:42:46:43:1f:96:bb:40:09:76:fa:49:65:bb:e7:9c:a5:
        44:61:a6:f5
-----BEGIN CERTIFICATE-----
MIIECDCCAvCgAwIBAgIBATANBgkqhkiG9w0BAQUFADB6MRMwEQYKCZImiZPyLGQB
GRYDb3JnMRYwFAYKCZImiZPyLGQBGRYGc2ltcGxlMRMwEQYDVQQKDApTaW1wbGUg
SW5jMRowGAYDVQQLDBFTaW1wbGUgU2lnbmluZyBDQTEaMBgGA1UEAwwRU2ltcGxl
IFNpZ25pbmcgQ0EwHhcNMjIxMTEyMDE1NjIwWhcNMjQxMTExMDE1NjIwWjB6MRMw
EQYKCZImiZPyLGQBGRYDb3JnMRYwFAYKCZImiZPyLGQBGRYGc2ltcGxlMRMwEQYD
VQQKDApTaW1wbGUgSW5jMRowGAYDVQQLDBFTaW1wbGUgU2lnbmluZyBDQTEaMBgG
A1UEAwwRU2ltcGxlIFNpZ25pbmcgQ0EwggEiMA0GCSqGSIb3DQEBAQUAA4IBDwAw
ggEKAoIBAQC0fIZcvi4gtscgFsLbHTCH89KLZY292ZW2fnZRn1yyLpMcePJ0t+oX
8JONLyy16OiDoNUXFdSpAQjVZzE12FhpzHxCIUJc2PvuEK/W4mDj0w9jKtNm5Pe+
INhsWhv4OaJxh2MCoRcc5c6Bi54sry2ZIKWKBlUCzQ9hg4plRkA/juwy/+YeeOFG
RfYaFKuxpATKLqG1soWy3caNUcF/ljFzbr4kDmOh2xi4C/NpwqMaoXPG1FGU732R
6z2JXK/eH9KqRLgznrqodeZGmaJTTtpPf5ct+FvDP3dovkH4QeN4Icaw5LjLllhc
ist4yIYrkpkX7eldO0Vx9HShpAYX3eYbAgMBAAGjgZgwgZUwDgYDVR0PAQH/BAQD
AgWgMAkGA1UdEwQCMAAwHQYDVR0lBBYwFAYIKwYBBQUHAwEGCCsGAQUFBwMCMB0G
A1UdDgQWBBQMnekv+QC1P9WfOqd9Bf0awNYIojAfBgNVHSMEGDAWgBR2C1e1XONk
l/JAYS0vZcfEXBXEejAZBgNVHREEEjAQgg53d3cuc2ltcGxlLm9yZzANBgkqhkiG
9w0BAQUFAAOCAQEAKEi2xjuLkcCdDdb2fw1oKNFHUJIIjio5kC55KAXQKOnQUWND
5ksX1ofrM5m4M6a+GTs/LIBUitzlDSe6NmDQ/+jmmCMD8G9NAR0Hm7RSJdwzS9+O
DR/OlNZoTFSOnBDJTI89SW+qTt5k/jRwwUSDK9DXYpMRay9c8bstdwtvItS4H8UY
UzXmZzdS9pDp2MqTbq274QSoessZB7dKen8uNYLdvn2wqiXdoTLBAPnNinwCC4NM
4O6wei6gmF90xfn5VcK9lepu9pYkVzpH3gfFmkK3ztaYN2IFdHPXG6eXwnK/v33D
2k9P3i1C6OZCRkMflrtACXb6SWW755ylRGGm9Q==
-----END CERTIFICATE-----
