Certificate:
    Data:
        Version: 3 (0x2)
        Serial Number: 1 (0x1)
        Signature Algorithm: sha1WithRSAEncryption
        Issuer: DC=org, DC=simple, O=Simple Inc, OU=Simple Root CA, CN=Simple Root CA
        Validity
            Not Before: Nov 12 01:49:32 2022 GMT
            Not After : Nov 11 01:49:32 2032 GMT
        Subject: DC=org, DC=simple, O=Simple Inc, OU=Simple Root CA, CN=Simple Root CA
        Subject Public Key Info:
            Public Key Algorithm: rsaEncryption
                Public-Key: (2048 bit)
                Modulus:
                    00:9e:36:1a:0b:34:a6:e7:fe:a8:4f:d0:ed:fa:4e:
                    99:2c:f6:65:37:47:48:d0:8c:52:1d:4d:cc:36:a1:
                    f8:0c:8f:da:d1:e4:59:34:c6:fb:b5:89:3f:24:d4:
                    db:66:e7:48:78:8d:2f:c1:b7:a1:a2:b5:f4:e5:65:
                    a7:d7:74:22:0c:9d:08:32:9e:e3:24:2c:20:58:c1:
                    40:4b:8e:f5:20:52:97:bb:ca:b6:51:53:de:e4:70:
                    9b:0c:b0:2f:1b:7a:68:9b:25:05:ec:11:cd:38:b9:
                    47:61:59:cf:4c:56:64:80:74:15:a5:43:83:da:d2:
                    11:31:7b:db:8d:f6:23:77:69:ec:89:85:ca:c7:c2:
                    61:0e:e3:22:84:51:94:93:fe:5a:74:8e:7f:95:d6:
                    1f:eb:f6:2f:44:29:fc:f1:9a:cf:e3:fa:da:40:cb:
                    c3:46:9a:de:62:f8:0f:f4:96:39:9b:ed:49:79:b0:
                    03:a3:ab:e4:a0:36:d4:59:1c:a0:98:b1:53:23:ba:
                    1a:4d:cc:d8:20:3b:75:2a:64:fd:c1:eb:0f:66:05:
                    dd:98:b3:f9:83:28:51:4f:38:9a:1d:7a:44:d8:b2:
                    31:2b:b4:43:5c:fc:93:e4:9c:c0:6b:71:e0:86:29:
                    2e:8f:3e:86:05:d6:86:13:4c:47:4f:f1:21:e2:b7:
                    42:77
                Exponent: 65537 (0x10001)
        X509v3 extensions:
            X509v3 Key Usage: critical
                Certificate Sign, CRL Sign
            X509v3 Basic Constraints: critical
                CA:TRUE
            X509v3 Subject Key Identifier: 
                6E:9B:AC:E4:74:C0:30:A6:1D:FB:E5:04:83:64:9F:E9:C7:DD:97:46
            X509v3 Authority Key Identifier: 
                6E:9B:AC:E4:74:C0:30:A6:1D:FB:E5:04:83:64:9F:E9:C7:DD:97:46
    Signature Algorithm: sha1WithRSAEncryption
    Signature Value:
        2e:86:22:00:3b:a6:51:3c:00:f1:6c:31:5b:19:06:a0:da:21:
        48:6d:67:30:bb:91:99:64:34:36:50:86:d2:16:7b:93:95:be:
        b9:a8:09:74:4d:02:95:c3:60:2c:ab:05:31:60:f8:5e:85:35:
        c3:0a:37:c2:b2:0e:08:3f:7a:6a:27:46:e8:eb:5b:df:78:7a:
        f9:7c:41:88:0b:ef:59:9b:72:ad:b8:0d:eb:c6:16:62:27:ab:
        d0:de:93:44:91:76:69:38:26:85:87:42:41:5f:f4:8b:b7:8b:
        6d:a0:d6:ee:9b:2b:08:9c:26:53:96:93:2d:c2:3b:a3:2c:fc:
        5a:f4:0b:e5:1c:c9:79:0d:c0:18:b5:84:b3:6a:55:22:56:67:
        df:58:7e:91:31:b7:c7:0f:3a:16:95:c2:e6:93:8e:d7:98:88:
        da:ab:ca:78:e6:d2:92:2c:48:2c:58:99:a6:3b:ab:c0:ec:4d:
        2e:3e:f9:2f:36:18:08:5b:e7:d0:fe:1d:31:09:74:4b:6e:3a:
        52:74:f2:a7:15:5b:c7:bd:bb:d3:8f:0d:06:32:ca:fe:1f:0b:
        45:79:d0:05:e2:8b:90:22:c3:07:af:71:fa:e6:27:de:04:14:
        56:5c:78:4f:50:01:59:20:5c:74:77:46:d1:31:a3:bc:d5:dc:
        c6:28:03:15
-----BEGIN CERTIFICATE-----
MIIDxjCCAq6gAwIBAgIBATANBgkqhkiG9w0BAQUFADB0MRMwEQYKCZImiZPyLGQB
GRYDb3JnMRYwFAYKCZImiZPyLGQBGRYGc2ltcGxlMRMwEQYDVQQKDApTaW1wbGUg
SW5jMRcwFQYDVQQLDA5TaW1wbGUgUm9vdCBDQTEXMBUGA1UEAwwOU2ltcGxlIFJv
b3QgQ0EwHhcNMjIxMTEyMDE0OTMyWhcNMzIxMTExMDE0OTMyWjB0MRMwEQYKCZIm
iZPyLGQBGRYDb3JnMRYwFAYKCZImiZPyLGQBGRYGc2ltcGxlMRMwEQYDVQQKDApT
aW1wbGUgSW5jMRcwFQYDVQQLDA5TaW1wbGUgUm9vdCBDQTEXMBUGA1UEAwwOU2lt
cGxlIFJvb3QgQ0EwggEiMA0GCSqGSIb3DQEBAQUAA4IBDwAwggEKAoIBAQCeNhoL
NKbn/qhP0O36Tpks9mU3R0jQjFIdTcw2ofgMj9rR5Fk0xvu1iT8k1Ntm50h4jS/B
t6GitfTlZafXdCIMnQgynuMkLCBYwUBLjvUgUpe7yrZRU97kcJsMsC8bemibJQXs
Ec04uUdhWc9MVmSAdBWlQ4Pa0hExe9uN9iN3aeyJhcrHwmEO4yKEUZST/lp0jn+V
1h/r9i9EKfzxms/j+tpAy8NGmt5i+A/0ljmb7Ul5sAOjq+SgNtRZHKCYsVMjuhpN
zNggO3UqZP3B6w9mBd2Ys/mDKFFPOJodekTYsjErtENc/JPknMBrceCGKS6PPoYF
1oYTTEdP8SHit0J3AgMBAAGjYzBhMA4GA1UdDwEB/wQEAwIBBjAPBgNVHRMBAf8E
BTADAQH/MB0GA1UdDgQWBBRum6zkdMAwph375QSDZJ/px92XRjAfBgNVHSMEGDAW
gBRum6zkdMAwph375QSDZJ/px92XRjANBgkqhkiG9w0BAQUFAAOCAQEALoYiADum
UTwA8WwxWxkGoNohSG1nMLuRmWQ0NlCG0hZ7k5W+uagJdE0ClcNgLKsFMWD4XoU1
wwo3wrIOCD96aidG6Otb33h6+XxBiAvvWZtyrbgN68YWYier0N6TRJF2aTgmhYdC
QV/0i7eLbaDW7psrCJwmU5aTLcI7oyz8WvQL5RzJeQ3AGLWEs2pVIlZn31h+kTG3
xw86FpXC5pOO15iI2qvKeObSkixILFiZpjurwOxNLj75LzYYCFvn0P4dMQl0S246
UnTypxVbx727048NBjLK/h8LRXnQBeKLkCLDB69x+uYn3gQUVlx4T1ABWSBcdHdG
0TGjvNXcxigDFQ==
-----END CERTIFICATE-----
