Certificate:
    Data:
        Version: 3 (0x2)
        Serial Number: 2 (0x2)
        Signature Algorithm: sha1WithRSAEncryption
        Issuer: DC=org, DC=simple, O=Simple Inc, OU=Simple Root CA, CN=Simple Root CA
        Validity
            Not Before: Nov 12 01:53:02 2022 GMT
            Not After : Nov 11 01:53:02 2032 GMT
        Subject: DC=org, DC=simple, O=Simple Inc, OU=Simple Signing CA, CN=Simple Signing CA
        Subject Public Key Info:
            Public Key Algorithm: rsaEncryption
                Public-Key: (2048 bit)
                Modulus:
                    00:db:fd:6f:9c:c5:71:e0:48:8c:5f:54:43:e8:30:
                    e5:8a:a1:39:a6:5e:15:2a:4e:a0:fd:9f:93:83:dc:
                    a6:47:9e:7e:d7:63:7e:a5:e0:d4:3e:82:2d:04:ce:
                    c5:b7:8b:92:37:62:25:dd:6d:0c:e0:ce:89:c4:8f:
                    ae:f8:86:c1:fb:2e:ea:6e:f2:d0:e5:e7:99:a8:45:
                    03:44:b6:8f:70:e1:c6:ce:72:cd:67:8d:ca:cf:b3:
                    1c:2a:2e:69:cc:92:a0:d4:74:6a:3b:9d:8b:27:4d:
                    6f:83:1e:54:44:82:d7:50:d5:06:08:63:98:8d:63:
                    ff:f0:87:73:c2:81:a7:29:e5:b2:e1:32:25:a9:6b:
                    1d:8b:25:d3:30:17:0f:fd:29:5a:5d:c5:c9:8e:a4:
                    d0:64:29:46:29:20:48:c2:65:5d:ad:b3:33:22:cc:
                    69:b4:3a:ed:14:dd:08:5e:38:88:a4:58:6f:89:4a:
                    21:bb:99:65:42:cd:f9:c7:4f:8d:21:ac:69:7d:0a:
                    eb:40:6e:34:e2:87:d7:e4:a8:59:4a:45:54:f2:b5:
                    f3:8c:89:ee:47:80:c0:37:0d:5e:4e:f7:22:9e:85:
                    9b:46:1f:c7:99:3d:e9:82:6a:89:8b:ef:35:cd:6e:
                    fc:8f:d7:d3:27:34:44:96:2f:d0:41:f5:0d:d8:b6:
                    f5:9b
                Exponent: 65537 (0x10001)
        X509v3 extensions:
            X509v3 Key Usage: critical
                Certificate Sign, CRL Sign
            X509v3 Basic Constraints: critical
                CA:TRUE, pathlen:0
            X509v3 Subject Key Identifier: 
                76:0B:57:B5:5C:E3:64:97:F2:40:61:2D:2F:65:C7:C4:5C:15:C4:7A
            X509v3 Authority Key Identifier: 
                6E:9B:AC:E4:74:C0:30:A6:1D:FB:E5:04:83:64:9F:E9:C7:DD:97:46
    Signature Algorithm: sha1WithRSAEncryption
    Signature Value:
        79:cc:4e:3b:2e:1f:ec:f4:d4:2c:f9:d8:8b:82:bc:cf:fb:54:
        be:75:89:fe:f5:9e:0e:5b:72:d5:cc:89:3d:18:79:3d:c3:41:
        4e:f2:02:36:8a:61:9c:30:90:f8:61:9b:a3:f3:22:8e:f1:77:
        5e:33:8d:5a:dc:55:43:ad:e4:bb:cd:c6:f2:21:77:57:a5:1a:
        7d:35:b1:bd:4c:14:32:63:7b:c6:39:12:92:40:5e:bf:c6:0a:
        68:0c:33:d3:cc:96:78:fc:4a:74:9e:50:dc:8f:12:66:04:1a:
        23:2a:eb:cc:98:c7:46:a5:71:cc:3d:28:87:31:ef:88:a3:6c:
        6e:80:b3:e3:b6:f3:24:a7:87:17:a5:41:a1:6f:da:7a:09:df:
        b2:c4:8c:2e:f1:f8:aa:cf:e4:d1:94:9d:e5:91:20:fc:e7:0e:
        8e:ff:2a:2e:32:0e:5c:c7:86:72:9e:42:42:e8:65:84:5e:22:
        e7:b3:25:8e:79:0e:a1:fb:87:f0:fb:f7:6b:00:f6:b9:5d:e6:
        9d:68:c4:e8:b0:49:32:88:35:62:4d:ff:4c:6d:ba:a6:56:fd:
        79:bb:08:7f:b2:a1:08:d0:e6:63:4f:8e:a4:61:9d:99:d9:7a:
        e3:42:61:a8:f8:dc:ab:b8:6e:17:e9:d2:dc:47:63:57:ce:26:
        85:a5:a6:b9
-----BEGIN CERTIFICATE-----
MIIDzzCCAregAwIBAgIBAjANBgkqhkiG9w0BAQUFADB0MRMwEQYKCZImiZPyLGQB
GRYDb3JnMRYwFAYKCZImiZPyLGQBGRYGc2ltcGxlMRMwEQYDVQQKDApTaW1wbGUg
SW5jMRcwFQYDVQQLDA5TaW1wbGUgUm9vdCBDQTEXMBUGA1UEAwwOU2ltcGxlIFJv
b3QgQ0EwHhcNMjIxMTEyMDE1MzAyWhcNMzIxMTExMDE1MzAyWjB6MRMwEQYKCZIm
iZPyLGQBGRYDb3JnMRYwFAYKCZImiZPyLGQBGRYGc2ltcGxlMRMwEQYDVQQKDApT
aW1wbGUgSW5jMRowGAYDVQQLDBFTaW1wbGUgU2lnbmluZyBDQTEaMBgGA1UEAwwR
U2ltcGxlIFNpZ25pbmcgQ0EwggEiMA0GCSqGSIb3DQEBAQUAA4IBDwAwggEKAoIB
AQDb/W+cxXHgSIxfVEPoMOWKoTmmXhUqTqD9n5OD3KZHnn7XY36l4NQ+gi0EzsW3
i5I3YiXdbQzgzonEj674hsH7Lupu8tDl55moRQNEto9w4cbOcs1njcrPsxwqLmnM
kqDUdGo7nYsnTW+DHlREgtdQ1QYIY5iNY//wh3PCgacp5bLhMiWpax2LJdMwFw/9
KVpdxcmOpNBkKUYpIEjCZV2tszMizGm0Ou0U3QheOIikWG+JSiG7mWVCzfnHT40h
rGl9CutAbjTih9fkqFlKRVTytfOMie5HgMA3DV5O9yKehZtGH8eZPemCaomL7zXN
bvyP19MnNESWL9BB9Q3YtvWbAgMBAAGjZjBkMA4GA1UdDwEB/wQEAwIBBjASBgNV
HRMBAf8ECDAGAQH/AgEAMB0GA1UdDgQWBBR2C1e1XONkl/JAYS0vZcfEXBXEejAf
BgNVHSMEGDAWgBRum6zkdMAwph375QSDZJ/px92XRjANBgkqhkiG9w0BAQUFAAOC
AQEAecxOOy4f7PTULPnYi4K8z/tUvnWJ/vWeDlty1cyJPRh5PcNBTvICNophnDCQ
+GGbo/MijvF3XjONWtxVQ63ku83G8iF3V6UafTWxvUwUMmN7xjkSkkBev8YKaAwz
08yWePxKdJ5Q3I8SZgQaIyrrzJjHRqVxzD0ohzHviKNsboCz47bzJKeHF6VBoW/a
egnfssSMLvH4qs/k0ZSd5ZEg/OcOjv8qLjIOXMeGcp5CQuhlhF4i57MljnkOofuH
8Pv3awD2uV3mnWjE6LBJMog1Yk3/TG26plb9ebsIf7KhCNDmY0+OpGGdmdl640Jh
qPjcq7huF+nS3EdjV84mhaWmuQ==
-----END CERTIFICATE-----
